; Function Attrs: nounwind uwtable
define dso_local range(i64 0, 2) i64 @has_column_privilege_name_id_name(ptr noundef captures(none) %0) local_unnamed_addr #0 {
  %2 = alloca i8, align 1
  %3 = getelementptr inbounds nuw i8, ptr %0, i64 32
  %4 = load i64, ptr %3, align 8
  %5 = inttoptr i64 %4 to ptr
  %6 = getelementptr inbounds nuw i8, ptr %0, i64 48
  %7 = load i64, ptr %6, align 8
  %8 = trunc i64 %7 to i32
  %9 = getelementptr inbounds nuw i8, ptr %0, i64 64
  %10 = load i64, ptr %9, align 8
  %11 = inttoptr i64 %10 to ptr
  %12 = tail call ptr @pg_detoast_datum_packed(ptr noundef %11) #14
  %13 = getelementptr inbounds nuw i8, ptr %0, i64 80
  %14 = load i64, ptr %13, align 8
  %15 = inttoptr i64 %14 to ptr
  %16 = tail call ptr @pg_detoast_datum_packed(ptr noundef %15) #14
  %17 = tail call i32 @strcmp(ptr noundef nonnull dereferenceable(1) %5, ptr noundef nonnull dereferenceable(7) @.str.32) #17
  %18 = icmp eq i32 %17, 0
  br i1 %18, label %get_role_oid_or_public.exit, label %19

19:                                               ; preds = %1
  %20 = tail call i32 @GetSysCacheOid(i32 noundef 10, i16 noundef signext 1, i64 noundef %4, i64 noundef 0, i64 noundef 0, i64 noundef 0) #14
  %.not.i.not.i = icmp eq i32 %20, 0
  br i1 %.not.i.not.i, label %21, label %get_role_oid_or_public.exit

21:                                               ; preds = %19
  %22 = tail call zeroext i1 @errstart_cold(i32 noundef 21, ptr noundef null) #15
  tail call void @llvm.assume(i1 %22)
  %23 = tail call i32 @errcode(i32 noundef 67137668) #14
  %24 = tail call i32 (ptr, ...) @errmsg(ptr noundef nonnull @.str.31, ptr noundef nonnull %5) #14
  tail call void @errfinish(ptr noundef nonnull @.str.1, i32 noundef 5563, ptr noundef nonnull @__func__.get_role_oid) #14
  unreachable

get_role_oid_or_public.exit:                      ; preds = %1, %19
  %.0.i = phi i32 [ 0, %1 ], [ %20, %19 ]
  %25 = tail call fastcc signext i16 @convert_column_name(i32 noundef %8, ptr noundef %12)
  %26 = tail call fastcc i64 @convert_any_priv_string(ptr noundef %16, ptr noundef nonnull @convert_column_priv_string.column_priv_map)
  call void @llvm.lifetime.start.p0(i64 1, ptr nonnull %2) #14
  store i8 0, ptr %2, align 1
  %27 = icmp eq i16 %25, 0
  br i1 %27, label %column_privilege_check.exit.thread, label %28

28:                                               ; preds = %get_role_oid_or_public.exit
  %29 = call i32 @pg_attribute_aclcheck_ext(i32 noundef %8, i16 noundef signext %25, i32 noundef %.0.i, i64 noundef %26, ptr noundef nonnull %2) #14
  %30 = icmp eq i32 %29, 0
  br i1 %30, label %column_privilege_check.exit.thread19, label %31

31:                                               ; preds = %28
  %32 = load i8, ptr %2, align 1, !range !27, !noundef !28
  %33 = trunc nuw i8 %32 to i1
  br i1 %33, label %column_privilege_check.exit.thread, label %34

34:                                               ; preds = %31
  %35 = call i32 @pg_class_aclcheck_ext(i32 noundef %8, i32 noundef %.0.i, i64 noundef %26, ptr noundef nonnull %2) #14
  %36 = icmp eq i32 %35, 0
  br i1 %36, label %column_privilege_check.exit.thread19, label %column_privilege_check.exit

column_privilege_check.exit.thread:               ; preds = %get_role_oid_or_public.exit, %31
  call void @llvm.lifetime.end.p0(i64 1, ptr nonnull %2) #14
  br label %38

column_privilege_check.exit.thread19:             ; preds = %28, %34
  call void @llvm.lifetime.end.p0(i64 1, ptr nonnull %2) #14
  br label %40

column_privilege_check.exit:                      ; preds = %34
  %37 = load i8, ptr %2, align 1, !range !27, !noundef !28
  call void @llvm.lifetime.end.p0(i64 1, ptr nonnull %2) #14
  %.not = icmp eq i8 %37, 0
  br i1 %.not, label %40, label %38

38:                                               ; preds = %column_privilege_check.exit.thread, %column_privilege_check.exit
  %39 = getelementptr inbounds nuw i8, ptr %0, i64 28
  store i8 1, ptr %39, align 4
  br label %40

40:                                               ; preds = %column_privilege_check.exit, %column_privilege_check.exit.thread19, %38
  %.0 = phi i64 [ 0, %38 ], [ 1, %column_privilege_check.exit.thread19 ], [ 0, %column_privilege_check.exit ]
  ret i64 %.0
}